(dp1
S'Gary_Busey'
p2
S'1944/6/29'
p3
sS'George_Clooney'
p4
S'1961/5/6'
p5
sS'Sandra_Bullock'
p6
S'1964/7/26'
p7
sS'Harrison_Ford'
p8
S'1942/7/13'
p9
sS'Rochelle_Hume'
p10
S'1989/3/21'
p11
sS'Jerry_Hall'
p12
S'1956/7/2'
p13
sS'Will_Ferrell'
p14
S'1967/7/16'
p15
sS'Kelly_Rowland'
p16
S'1981/2/11'
p17
sS'Frankie_Sandford'
p18
S'1989/1/14'
p19
sS'Charlie_Sheen'
p20
S'1965/9/3'
p21
sS'Bradley_Cooper'
p22
S'1975/1/5'
p23
sS'Nicky_Byrne'
p24
S'1978/10/9'
p25
sS'Keanu_Reeves'
p26
S'1964/9/2'
p27
sS'Vin_Diesel'
p28
S'1967/7/18'
p29
sS'Tom_Hank'
p30
S'1956/7/9'
p31
sS'Dani_Harmer'
p32
S'1989/2/8'
p33
sS'Rosie_Huntington-Whiteley'
p34
S'1987/4/18'
p35
sS'Dannii_Minogue'
p36
S'1971/10/20'
p37
sS'Kylie_Minogue'
p38
S'1968/5/28'
p39
sS'Bruce_Forsyth'
p40
S'1928/2/22'
p41
sS'Vanessa_Hudgens'
p42
S'1988/12/14'
p43
sS'Paula_Hamilton'
p44
S'1961/1/23'
p45
sS'Lauren_Goodger'
p46
S'1986/9/19'
p47
sS'Solange_Knowles'
p48
S'1986/6/24'
p49
sS'Morgan_Freeman'
p50
S'1937/6/1'
p51
sS'Christopher_Maloney'
p52
S'1969/3/22'
p53
sS'Alesha_Dixon'
p54
S'1978/10/7'
p55
sS'Julia_Robert'
p56
S'1967/10/28'
p57
sS'Brad_Pitt'
p58
S'1963/12/18'
p59
sS'Marlon_Brando'
p60
S'1924/4/3'
p61
sS'Michelle_Keegan'
p62
S'1987/6/3'
p63
sS'Mariah_Carey'
p64
S'1969/3/27'
p65
sS'Sarah_Harding'
p66
S'1981/11/17'
p67
sS'Blake_Lively'
p68
S'1987/8/25'
p69
sS'Chris_Hemsworth'
p70
S'1983/8/11'
p71
sS'Cory_Monteith'
p72
S'1982/5/11'
p73
sS'Susanna_Reid'
p74
S'1970/12/10'
p75
sS'Jessica_Simpson'
p76
S'1980/7/10'
p77
sS'Adam_Sandler'
p78
S'1966/9/9'
p79
sS'Miley_Cyrus'
p80
S'1992/11/23'
p81
sS'Jason_Statham'
p82
S'1967/7/26'
p83
sS'Harry_Hill'
p84
S'1964/10/1'
p85
sS'Emma_Stone'
p86
S'1988/11/6'
p87
sS'Heidi_Montag'
p88
S'1986/9/15'
p89
sS'Tom_Cruise'
p90
S'1962/7/3'
p91
sS'Daniel_Radcliffe'
p92
S'1989/7/23'
p93
sS'Gillian_Taylforth'
p94
S'1955/8/14'
p95
sS'Bruno_Tonioli'
p96
S'1955/11/25'
p97
sS'Una_Healy'
p98
S'1981/10/10'
p99
sS'Rihanna'
p100
S'1988/2/20'
p101
sS'Colin_Baker'
p102
S'1943/6/8'
p103
sS'Owen_Wilson'
p104
S'1968/11/18'
p105
sS'Nicolas_Cage'
p106
S'1964/1/7'
p107
sS'Jason_Biggs'
p108
S'1978/5/12'
p109
sS'Victoria_Pendleton'
p110
S'1980/9/24'
p111
sS'Steve_Jobs'
p112
S'1955/2/24'
p113
sS'Neil_Ruddock'
p114
S'1968/5/9'
p115
sS'Kendall_Jenner'
p116
S'1995/11/3'
p117
sS'Lea_Michele'
p118
S'1986/8/29'
p119
sS'Reese_Witherspoon'
p120
S'1976/3/22'
p121
sS'Mark_Wahlberg'
p122
S'1971/6/5'
p123
sS'Orlando_Bloom'
p124
S'1977/1/13'
p125
sS'Channing_Tatum'
p126
S'1980/4/26'
p127
sS'Zac_Efron'
p128
S'1987/10/18'
p129
sS'Cheryl_Fergison'
p130
S'1965/8/27'
p131
sS'Coleen_Rooney'
p132
S'1986/4/3'
p133
sS'Pixie_Lott'
p134
S'1991/1/12'
p135
sS'Demi_Lovato'
p136
S'1992/8/20'
p137
sS'Nadine_Dorrie'
p138
S'1957/5/21'
p139
sS'Katie_Holmes'
p140
S'1978/12/18'
p141
sS'David_Walliams'
p142
S'1971/8/20'
p143
sS'Queen_Victoria'
p144
S'1819/5/24'
p145
sS'Kristen_Stewart'
p146
S'1990/4/9'
p147
sS'Kate_Winslet'
p148
S'1975/10/5'
p149
sS'Bruce_Willis'
p150
S'1955/3/19'
p151
sS'Pierce_Brosnan'
p152
S'1953/5/16'
p153
sS'Hulk_Hogan'
p154
S'1953/8/11'
p155
sS'Justin_Bieber'
p156
S'1994/3/1'
p157
sS'Benedict_Cumberbatch'
p158
S'1976/7/19'
p159
sS'Michael_Jackson'
p160
S'1958/8/29'
p161
sS'Miranda_Kerr'
p162
S'1983/4/20'
p163
sS'Harry_Style'
p164
S'1994/2/1'
p165
sS'Mollie_King'
p166
S'1987/6/4'
p167
sS'Ryan_Reynolds'
p168
S'1976/10/23'
p169
sS'Eric_Bristow'
p170
S'1957/4/25'
p171
sS'Jet_Li'
p172
S'1963/4/26'
p173
sS'Russell_Crowe'
p174
S'1964/4/7'
p175
sS'Justin_Timberlake'
p176
S'1981/1/31'
p177
sS'Kate_Beckinsale'
p178
S'1973/7/26'
p179
sS'Amitabh_Bachchan'
p180
S'1942/10/11'
p181
sS'Colin_Salmon'
p182
S'1962/12/6'
p183
sS'Sienna_Miller'
p184
S'1981/12/28'
p185
sS'Lucy_Spraggan'
p186
S'1991/7/21'
p187
sS'Peter_Jackson'
p188
S'1961/10/31'
p189
sS'Michael_Richards'
p190
S'1949/7/24'
p191
sS'Len_Goodman'
p192
S'1944/4/25'
p193
sS'Steve_Carell'
p194
S'1962/8/16'
p195
sS'Rylan_Clark'
p196
S'1988/10/25'
p197
sS'Natasha_Richardson'
p198
S'1963/5/11'
p199
sS'Olivia_Palermo'
p200
S'1986/2/28'
p201
sS'Christina_Aguilera'
p202
S'1980/12/18'
p203
sS'Selena_Gomez'
p204
S'1992/7/22'
p205
sS'Lady_Gaga'
p206
S'1986/3/28'
p207
sS'Caroline_Flack'
p208
S'1979/11/9'
p209
sS'Daniel_Craig'
p210
S'1968/3/2'
p211
sS'Cheryl_Cole'
p212
S'1983/6/30'
p213
sS'Robert_Downey_Jr.'
p214
S'1965/4/4'
p215
sS'David_Haye'
p216
S'1980/10/13'
p217
sS'Ashley_Roberts'
p218
S'1981/9/14'
p219
sS'Louis_Walsh'
p220
S'1952/8/5'
p221
sS'Lisa_Riley'
p222
S'1976/7/13'
p223
sS'Bruno_Mars'
p224
S'1985/10/8'
p225
sS'Pasha_Kovalev'
p226
S'1980/1/19'
p227
sS'Ryan_Gosling'
p228
S'1980/11/12'
p229
sS'Marilyn_Monroe'
p230
S'1926/6/1'
p231
sS'Dwayne_Johnson'
p232
S'1972/5/2'
p233
sS'Arnold_Schwarzenegger'
p234
S'1947/7/30'
p235
sS'Louis_Tomlinson'
p236
S'1991/12/24'
p237
sS'Charlotte_Church'
p238
S'1986/2/21'
p239
sS'Danica_Thrall'
p240
S'1988/3/30'
p241
sS'Christian_Bale'
p242
S'1974/1/30'
p243
sS'Gary_Barlow'
p244
S'1971/1/20'
p245
sS'Kate_Moss'
p246
S'1974/1/16'
p247
sS'Jessie_J'
p248
S'1988/3/27'
p249
sS'Hugh_Jackman'
p250
S'1968/10/12'
p251
sS'Peaches_Geldof'
p252
S'1989/3/13'
p253
sS'Britney_Spears'
p254
S'1981/12/2'
p255
sS'Eva_Longoria'
p256
S'1975/3/15'
p257
sS'Mel_B'
p258
S'1975/5/29'
p259
sS'Jay_Z'
p260
S'1969/12/4'
p261
sS'Sean_Connery'
p262
S'1930/8/25'
p263
sS'Hayden_Panettiere'
p264
S'1989/8/21'
p265
sS'Sam_Robertson'
p266
S'1985/10/11'
p267
sS'Ella_Henderson'
p268
S'1996/1/12'
p269
sS'Anne_Hathaway'
p270
S'1982/11/12'
p271
sS'Kate_Upton'
p272
S'1992/6/10'
p273
sS'Paris_Hilton'
p274
S'1981/2/17'
p275
sS'Claudia_Winkleman'
p276
S'1972/1/15'
p277
sS'Rowan_Atkinson'
p278
S'1955/1/6'
p279
sS'Jean-Claude_Van_Damme'
p280
S'1960/10/18'
p281
sS'Amy_Childs'
p282
S'1990/6/7'
p283
sS'Pamela_Anderson'
p284
S'1967/7/1'
p285
sS'Whitney_Houston'
p286
S'1963/8/9'
p287
sS'Nicole_Scherzinger'
p288
S'1978/6/29'
p289
sS'Fearne_Cotton'
p290
S'1981/9/3'
p291
sS'Demi_Moore'
p292
S'1962/11/11'
p293
sS'Claire_Richards'
p294
S'1977/8/17'
p295
sS'Ed_Sheeran'
p296
S'1991/2/17'
p297
sS'Kourtney_Kardashian'
p298
S'1979/4/18'
p299
sS'Jessica_Alba'
p300
S'1981/4/28'
p301
sS'Cher_Lloyd'
p302
S'1993/7/28'
p303
sS'Bruce_Lee'
p304
S'1940/11/27'
p305
sS'John_Travolta'
p306
S'1954/2/18'
p307
sS'Macaulay_Culkin'
p308
S'1980/8/26'
p309
sS'Fern_Britton'
p310
S'1957/7/17'
p311
sS'Jackie_Chan'
p312
S'1954/4/7'
p313
sS'Ben_Stiller'
p314
S'1965/11/30'
p315
sS'Sigourney_Weaver'
p316
S'1949/10/8'
p317
sS'Kevin_Spacey'
p318
S'1959/7/26'
p319
sS'David_Beckham'
p320
S'1975/5/2'
p321
sS'Tommy_Lee_Jone'
p322
S'1946/9/15'
p323
sS'Olly_Murs'
p324
S'1984/5/14'
p325
sS'Dougie_Poynter'
p326
S'1987/11/30'
p327
sS'Kanye_West'
p328
S'1977/6/8'
p329
sS'Natalie_Portman'
p330
S'1981/6/9'
p331
sS'Lindsay_Lohan'
p332
S'1986/7/2'
p333
sS'Katie_Price'
p334
S'1978/5/22'
p335
sS'Nicki_Minaj'
p336
S'1982/12/8'
p337
sS'Elizabeth_Taylor'
p338
S'1932/2/27'
p339
sS'Tom_Hiddleston'
p340
S'1981/2/9'
p341
sS'Lacey_Banghard'
p342
S'1992/4/28'
p343
sS'Zach_Galifianaki'
p344
S'1969/10/1'
p345
sS'Nelson_Mandela'
p346
S'1918/7/18'
p347
sS'Holly_Willoughby'
p348
S'1981/2/10'
p349
sS'Pippa_Middleton'
p350
S'1983/9/6'
p351
sS'Craig_Revel_Horwood'
p352
S'1965/1/4'
p353
sS'Mel_Gibson'
p354
S'1956/1/3'
p355
sS'Alice_Eve'
p356
S'1982/2/6'
p357
sS'Prince_Harry'
p358
S'1984/9/15'
p359
sS'Eddie_Redmayne'
p360
S'1982/1/6'
p361
sS'Mila_Kunis'
p362
S'1983/8/14'
p363
sS'Samuel_L._Jackson'
p364
S'1948/12/21'
p365
sS'Sid_Owens'
p366
S'1972/1/12'
p367
sS'Victoria_Beckham'
p368
S'1974/4/17'
p369
sS'James_Franco'
p370
S'1978/4/19'
p371
sS'Tim_Allen'
p372
S'1953/6/13'
p373
sS'Charlie_Brooks'
p374
S'1981/5/3'
p375
sS'Ben_Affleck'
p376
S'1972/8/15'
p377
sS'Robin_Williams'
p378
S'1951/7/21'
p379
sS'Paul_Walker'
p380
S'1973/9/12'
p381
sS'Donald_Trump'
p382
S'1946/6/14'
p383
sS'Bill_Murray'
p384
S'1950/9/21'
p385
sS'Thom_Evans'
p386
S'1985/4/2'
p387
sS'Shayne_Ward'
p388
S'1984/10/16'
p389
sS'Diana_Vickers'
p390
S'1991/7/30'
p391
sS'Katy_Perry'
p392
S'1984/10/25'
p393
sS'Will_Smith'
p394
S'1968/9/25'
p395
sS'Taylor_Swift'
p396
S'1989/12/13'
p397
sS'Emma_Watson'
p398
S'1990/4/15'
p399
sS'Taylor_Lautner'
p400
S'1992/2/11'
p401
sS'Calvin_Harri'
p402
S'1984/1/17'
p403
sS'Jennifer_Lopez'
p404
S'1969/7/24'
p405
sS'Michael_Vaughan'
p406
S'1974/10/29'
p407
sS'Jim_Carrey'
p408
S'1962/1/17'
p409
sS'Louis_C.K.'
p410
S'1967/9/12'
p411
sS'Harry_Judd'
p412
S'1985/12/23'
p413
sS'Philip_Seymour_Hoffman'
p414
S'1967/7/23'
p415
sS'Edward_Norton'
p416
S'1969/8/18'
p417
sS'Simon_Cowell'
p418
S'1959/10/7'
p419
sS'Adele'
p420
S'1988/5/5'
p421
sS'Gwyneth_Paltrow'
p422
S'1972/9/27'
p423
sS'Jennifer_Aniston'
p424
S'1969/2/11'
p425
sS'Farrah_Fawcett'
p426
S'1947/2/2'
p427
sS'James_Cameron'
p428
S'1954/8/16'
p429
sS'Shirley_Temple'
p430
S'1928/4/23'
p431
sS'Beth_Tweddle'
p432
S'1985/4/1'
p433
sS'Ashton_Kutcher'
p434
S'1978/2/7'
p435
sS'Helen_Flanagan'
p436
S'1990/8/7'
p437
sS'Kara_Tointon'
p438
S'1983/8/5'
p439
sS'Lauren_Bacall'
p440
S'1924/9/16'
p441
sS'Nicola_Robert'
p442
S'1985/10/5'
p443
sS'Johnny_Ball'
p444
S'1938/5/23'
p445
sS'Patrick_Swayze'
p446
S'1952/8/18'
p447
sS'Cameron_Diaz'
p448
S'1972/8/30'
p449
sS'Megan_Fox'
p450
S'1986/5/16'
p451
sS'Spencer_Pratt'
p452
g363
sS'Kelly_Brook'
p453
S'1979/11/23'
p454
sS'Carolynne_Poole'
p455
S'1980/8/5'
p456
sS'Brendan_Fraser'
p457
S'1968/12/3'
p458
sS'Antonio_Bandera'
p459
S'1960/8/10'
p460
sS'Nigella_Lawson'
p461
S'1960/1/6'
p462
sS'Kerry_Katona'
p463
S'1980/9/6'
p464
sS'Kamal_Haasan'
p465
S'1954/11/7'
p466
sS'Coleen_Nolan'
p467
S'1965/3/12'
p468
sS'Matt_Lapinskas'
p469
S'1989/2/27'
p470
sS'Drew_Barrymore'
p471
S'1975/2/22'
p472
sS'Frankie_Dettori'
p473
S'1970/12/15'
p474
sS'Kimberley_Walsh'
p475
S'1981/11/20'
p476
sS'Keira_Knightley'
p477
S'1985/3/26'
p478
sS'Matt_Damon'
p479
S'1970/10/8'
p480
sS'Johnny_Depp'
p481
S'1963/6/9'
p482
sS'Al_Pacino'
p483
S'1940/4/25'
p484
sS'Robbie_Williams'
p485
S'1974/2/13'
p486
sS'Christopher_Walken'
p487
S'1943/3/31'
p488
sS'Tricia_Penrose'
p489
S'1970/4/9'
p490
sS'Adolf_Hitler'
p491
S'1889/4/20'
p492
sS'Linda_Robson'
p493
S'1958/3/13'
p494
sS'Jennifer_Lawrence'
p495
S'1990/8/15'
p496
sS'Clint_Eastwood'
p497
S'1930/5/31'
p498
sS'Angelina_Jolie'
p499
S'1975/6/4'
p500
sS'Sylvester_Stallone'
p501
S'1946/7/6'
p502
sS'Kelly_Osbourne'
p503
S'1984/10/27'
p504
sS'Kim_Kardashian'
p505
S'1980/10/21'
p506
sS'Denzel_Washington'
p507
S'1954/12/28'
p508
sS'Steven_Spielberg'
p509
S'1946/12/18'
p510
sS'Cara_Delevingne'
p511
S'1992/8/12'
p512
sS'Shah_Rukh_Khan'
p513
S'1965/11/2'
p514
sS'Katie_Hopkins'
p515
S'1975/2/13'
p516
sS'Joe_Rogan'
p517
S'1967/8/11'
p518
sS'Scarlett_Johansson'
p519
S'1984/11/22'
p520
sS'Eva_Mendes'
p521
S'1974/3/5'
p522
sS'Peter_Andre'
p523
S'1973/2/27'
p524
sS'Jessica_Chastain'
p525
S'1977/3/24'
p526
sS'Liam_Neeson'
p527
S'1952/6/7'
p528
sS'Rosamund_Pike'
p529
S'1979/1/27'
p530
sS'Lily_Allen'
p531
S'1985/5/2'
p532
sS'Halle_Berry'
p533
S'1966/8/14'
p534
sS'Jake_Gyllenhaal'
p535
S'1980/12/19'
p536
sS'Darcey_Bussell'
p537
S'1969/4/27'
p538
sS'Seann_William_Scott'
p539
S'1976/10/3'
p540
sS'Ben_Haenow'
p541
S'1985/1/6'
p542
sS'Nicole_Richie'
p543
S'1981/9/21'
p544
sS'Tess_Daly'
p545
g538
sS'Robert_De_Niro'
p546
S'1943/8/17'
p547
sS'Russell_Brand'
p548
g500
sS'Robert_Pattinson'
p549
S'1986/5/13'
p550
sS'Heath_Ledger'
p551
S'1979/4/4'
p552
s.