(dp1
S'Gary_Busey'
p2
S'1944/6/29'
p3
sS'George_Clooney'
p4
S'1961/5/6'
p5
sS'Sandra_Bullock'
p6
S'1964/7/26'
p7
sS'Harrison_Ford'
p8
S'1942/7/13'
p9
sS'Ashton_Kutcher'
p10
S'1978/2/7'
p11
sS'Eva_Mendes'
p12
S'1974/3/5'
p13
sS'Rochelle_Hume'
p14
S'1989/3/21'
p15
sS'Jerry_Hall'
p16
S'1956/7/2'
p17
sS'Will_Ferrell'
p18
S'1967/7/16'
p19
sS'Kelly_Rowland'
p20
S'1981/2/11'
p21
sS'Frankie_Sandford'
p22
S'1989/1/14'
p23
sS'Charlie_Sheen'
p24
S'1965/9/3'
p25
sS'Bradley_Cooper'
p26
S'1975/1/5'
p27
sS'Nicky_Byrne'
p28
S'1978/10/9'
p29
sS'Keanu_Reeves'
p30
S'1964/9/2'
p31
sS'Vin_Diesel'
p32
S'1967/7/18'
p33
sS'Tom_Hank'
p34
S'1956/7/9'
p35
sS'Dani_Harmer'
p36
S'1989/2/8'
p37
sS'Rosie_Huntington-Whiteley'
p38
S'1987/4/18'
p39
sS'Lucy_Spraggan'
p40
S'1991/7/21'
p41
sS'Kylie_Minogue'
p42
S'1968/5/28'
p43
sS'Christina_Aguilera'
p44
S'1980/12/18'
p45
sS'Bruce_Forsyth'
p46
S'1928/2/22'
p47
sS'Vanessa_Hudgens'
p48
S'1988/12/14'
p49
sS'Paula_Hamilton'
p50
S'1961/1/23'
p51
sS'Lauren_Goodger'
p52
S'1986/9/19'
p53
sS'Solange_Knowles'
p54
S'1986/6/24'
p55
sS'Morgan_Freeman'
p56
S'1937/6/1'
p57
sS'Christopher_Maloney'
p58
S'1969/3/22'
p59
sS'Alesha_Dixon'
p60
S'1978/10/7'
p61
sS'Will_Smith'
p62
S'1968/9/25'
p63
sS'Brad_Pitt'
p64
S'1963/12/18'
p65
sS'Marlon_Brando'
p66
S'1924/4/3'
p67
sS'Michelle_Keegan'
p68
S'1987/6/3'
p69
sS'Mariah_Carey'
p70
S'1969/3/27'
p71
sS'Sarah_Harding'
p72
S'1981/11/17'
p73
sS'Johnny_Depp'
p74
S'1963/6/9'
p75
sS'Cory_Monteith'
p76
S'1982/5/11'
p77
sS'Jessica_Simpson'
p78
S'1980/7/10'
p79
sS'Kim_Kardashian'
p80
S'1980/10/21'
p81
sS'Adam_Sandler'
p82
S'1966/9/9'
p83
sS'Miley_Cyrus'
p84
S'1992/11/23'
p85
sS'Jason_Statham'
p86
S'1967/7/26'
p87
sS'Harry_Hill'
p88
S'1964/10/1'
p89
sS'Taylor_Lautner'
p90
S'1992/2/11'
p91
sS'Heidi_Montag'
p92
S'1986/9/15'
p93
sS'Rylan_Clark'
p94
S'1988/10/25'
p95
sS'Tom_Cruise'
p96
S'1962/7/3'
p97
sS'Daniel_Radcliffe'
p98
S'1989/7/23'
p99
sS'Gillian_Taylforth'
p100
S'1955/8/14'
p101
sS'Natasha_Richardson'
p102
S'1963/5/11'
p103
sS'Rihanna'
p104
S'1988/2/20'
p105
sS'Olivia_Palermo'
p106
S'1986/2/28'
p107
sS'Owen_Wilson'
p108
S'1968/11/18'
p109
sS'Nicolas_Cage'
p110
S'1964/1/7'
p111
sS'Jason_Biggs'
p112
S'1978/5/12'
p113
sS'Victoria_Pendleton'
p114
S'1980/9/24'
p115
sS'Steve_Jobs'
p116
S'1955/2/24'
p117
sS'Neil_Ruddock'
p118
S'1968/5/9'
p119
sS'Kendall_Jenner'
p120
S'1995/11/3'
p121
sS'Selena_Gomez'
p122
S'1992/7/22'
p123
sS'Reese_Witherspoon'
p124
S'1976/3/22'
p125
sS'Mark_Wahlberg'
p126
S'1971/6/5'
p127
sS'Channing_Tatum'
p128
S'1980/4/26'
p129
sS'Jennifer_Lopez'
p130
S'1969/7/24'
p131
sS'Zac_Efron'
p132
S'1987/10/18'
p133
sS'Liam_Neeson'
p134
S'1952/6/7'
p135
sS'Cheryl_Fergison'
p136
S'1965/8/27'
p137
sS'Coleen_Rooney'
p138
S'1986/4/3'
p139
sS'Pixie_Lott'
p140
S'1991/1/12'
p141
sS'Demi_Lovato'
p142
S'1992/8/20'
p143
sS'Nadine_Dorrie'
p144
S'1957/5/21'
p145
sS'Natalie_Portman'
p146
S'1981/6/9'
p147
sS'Katie_Holmes'
p148
S'1978/12/18'
p149
sS'David_Walliams'
p150
S'1971/8/20'
p151
sS'Queen_Victoria'
p152
S'1819/5/24'
p153
sS'Kristen_Stewart'
p154
S'1990/4/9'
p155
sS'Kate_Winslet'
p156
S'1975/10/5'
p157
sS'Pierce_Brosnan'
p158
S'1953/5/16'
p159
sS'Hulk_Hogan'
p160
S'1953/8/11'
p161
sS'Justin_Bieber'
p162
S'1994/3/1'
p163
sS'Benedict_Cumberbatch'
p164
S'1976/7/19'
p165
sS'Michael_Jackson'
p166
S'1958/8/29'
p167
sS'Miranda_Kerr'
p168
S'1983/4/20'
p169
sS'Mollie_King'
p170
S'1987/6/4'
p171
sS'Ryan_Reynolds'
p172
S'1976/10/23'
p173
sS'Eric_Bristow'
p174
S'1957/4/25'
p175
sS'Jet_Li'
p176
S'1963/4/26'
p177
sS'Russell_Crowe'
p178
S'1964/4/7'
p179
sS'Lauren_Bacall'
p180
S'1924/9/16'
p181
sS'Kate_Beckinsale'
p182
S'1973/7/26'
p183
sS'Amitabh_Bachchan'
p184
S'1942/10/11'
p185
sS'Colin_Salmon'
p186
S'1962/12/6'
p187
sS'Sienna_Miller'
p188
S'1981/12/28'
p189
sS'Dannii_Minogue'
p190
S'1971/10/20'
p191
sS'Peter_Jackson'
p192
S'1961/10/31'
p193
sS'David_Haye'
p194
S'1980/10/13'
p195
sS'Len_Goodman'
p196
S'1944/4/25'
p197
sS'Steve_Carell'
p198
S'1962/8/16'
p199
sS'Colin_Baker'
p200
S'1943/6/8'
p201
sS'Bruno_Tonioli'
p202
S'1955/11/25'
p203
sS'Justin_Timberlake'
p204
S'1981/1/31'
p205
sS'Emma_Stone'
p206
S'1988/11/6'
p207
sS'Lea_Michele'
p208
S'1986/8/29'
p209
sS'Lady_Gaga'
p210
S'1986/3/28'
p211
sS'Gwyneth_Paltrow'
p212
S'1972/9/27'
p213
sS'Daniel_Craig'
p214
S'1968/3/2'
p215
sS'Cheryl_Cole'
p216
S'1983/6/30'
p217
sS'Pasha_Kovalev'
p218
S'1980/1/19'
p219
sS'Susanna_Reid'
p220
S'1970/12/10'
p221
sS'Ashley_Roberts'
p222
S'1981/9/14'
p223
sS'Louis_Walsh'
p224
S'1952/8/5'
p225
sS'Lisa_Riley'
p226
S'1976/7/13'
p227
sS'Bruno_Mars'
p228
S'1985/10/8'
p229
sS'Robert_Downey_Jr.'
p230
S'1965/4/4'
p231
sS'Ryan_Gosling'
p232
S'1980/11/12'
p233
sS'Marilyn_Monroe'
p234
S'1926/6/1'
p235
sS'Dwayne_Johnson'
p236
S'1972/5/2'
p237
sS'Arnold_Schwarzenegger'
p238
S'1947/7/30'
p239
sS'Louis_Tomlinson'
p240
S'1991/12/24'
p241
sS'Charlotte_Church'
p242
S'1986/2/21'
p243
sS'Danica_Thrall'
p244
S'1988/3/30'
p245
sS'Christian_Bale'
p246
S'1974/1/30'
p247
sS'Ben_Haenow'
p248
S'1985/1/6'
p249
sS'Gary_Barlow'
p250
S'1971/1/20'
p251
sS'Kate_Moss'
p252
S'1974/1/16'
p253
sS'Jessie_J'
p254
S'1988/3/27'
p255
sS'Hugh_Jackman'
p256
S'1968/10/12'
p257
sS'Peaches_Geldof'
p258
S'1989/3/13'
p259
sS'Britney_Spears'
p260
S'1981/12/2'
p261
sS'Eva_Longoria'
p262
S'1975/3/15'
p263
sS'Mel_B'
p264
S'1975/5/29'
p265
sS'Jay_Z'
p266
S'1969/12/4'
p267
sS'Sean_Connery'
p268
S'1930/8/25'
p269
sS'Hayden_Panettiere'
p270
S'1989/8/21'
p271
sS'Sam_Robertson'
p272
S'1985/10/11'
p273
sS'Ella_Henderson'
p274
S'1996/1/12'
p275
sS'Anne_Hathaway'
p276
S'1982/11/12'
p277
sS'Kate_Upton'
p278
S'1992/6/10'
p279
sS'Paris_Hilton'
p280
S'1981/2/17'
p281
sS'Claudia_Winkleman'
p282
S'1972/1/15'
p283
sS'Megan_Fox'
p284
S'1986/5/16'
p285
sS'Rowan_Atkinson'
p286
S'1955/1/6'
p287
sS'Jean-Claude_Van_Damme'
p288
S'1960/10/18'
p289
sS'Amy_Childs'
p290
S'1990/6/7'
p291
sS'Pamela_Anderson'
p292
S'1967/7/1'
p293
sS'Whitney_Houston'
p294
S'1963/8/9'
p295
sS'Nicole_Scherzinger'
p296
S'1978/6/29'
p297
sS'Fearne_Cotton'
p298
S'1981/9/3'
p299
sS'Demi_Moore'
p300
S'1962/11/11'
p301
sS'Claire_Richards'
p302
S'1977/8/17'
p303
sS'Ed_Sheeran'
p304
S'1991/2/17'
p305
sS'Kourtney_Kardashian'
p306
S'1979/4/18'
p307
sS'Jessica_Alba'
p308
S'1981/4/28'
p309
sS'James_Cameron'
p310
S'1954/8/16'
p311
sS'Bruce_Lee'
p312
S'1940/11/27'
p313
sS'John_Travolta'
p314
S'1954/2/18'
p315
sS'Katie_Price'
p316
S'1978/5/22'
p317
sS'Fern_Britton'
p318
S'1957/7/17'
p319
sS'Jackie_Chan'
p320
S'1954/4/7'
p321
sS'Ben_Stiller'
p322
S'1965/11/30'
p323
sS'Sigourney_Weaver'
p324
S'1949/10/8'
p325
sS'Kevin_Spacey'
p326
S'1959/7/26'
p327
sS'David_Beckham'
p328
S'1975/5/2'
p329
sS'Tommy_Lee_Jone'
p330
S'1946/9/15'
p331
sS'Olly_Murs'
p332
S'1984/5/14'
p333
sS'Kanye_West'
p334
S'1977/6/8'
p335
sS'Orlando_Bloom'
p336
S'1977/1/13'
p337
sS'Lindsay_Lohan'
p338
S'1986/7/2'
p339
sS'Macaulay_Culkin'
p340
S'1980/8/26'
p341
sS'Nicki_Minaj'
p342
S'1982/12/8'
p343
sS'Elizabeth_Taylor'
p344
S'1932/2/27'
p345
sS'Tom_Hiddleston'
p346
S'1981/2/9'
p347
sS'Lacey_Banghard'
p348
S'1992/4/28'
p349
sS'Zach_Galifianaki'
p350
S'1969/10/1'
p351
sS'Nelson_Mandela'
p352
S'1918/7/18'
p353
sS'Holly_Willoughby'
p354
S'1981/2/10'
p355
sS'Pippa_Middleton'
p356
S'1983/9/6'
p357
sS'Craig_Revel_Horwood'
p358
S'1965/1/4'
p359
sS'Mel_Gibson'
p360
S'1956/1/3'
p361
sS'Alice_Eve'
p362
S'1982/2/6'
p363
sS'Prince_Harry'
p364
S'1984/9/15'
p365
sS'Eddie_Redmayne'
p366
S'1982/1/6'
p367
sS'Mila_Kunis'
p368
S'1983/8/14'
p369
sS'Samuel_L._Jackson'
p370
S'1948/12/21'
p371
sS'Sid_Owens'
p372
S'1972/1/12'
p373
sS'James_Franco'
p374
S'1978/4/19'
p375
sS'Charlie_Brooks'
p376
S'1981/5/3'
p377
sS'Robin_Williams'
p378
S'1951/7/21'
p379
sS'Paul_Walker'
p380
S'1973/9/12'
p381
sS'Donald_Trump'
p382
S'1946/6/14'
p383
sS'Bill_Murray'
p384
S'1950/9/21'
p385
sS'Thom_Evans'
p386
S'1985/4/2'
p387
sS'Diana_Vickers'
p388
S'1991/7/30'
p389
sS'Katy_Perry'
p390
S'1984/10/25'
p391
sS'Julia_Robert'
p392
S'1967/10/28'
p393
sS'Taylor_Swift'
p394
S'1989/12/13'
p395
sS'Emma_Watson'
p396
S'1990/4/15'
p397
sS'Victoria_Beckham'
p398
S'1974/4/17'
p399
sS'Calvin_Harri'
p400
S'1984/1/17'
p401
sS'Clint_Eastwood'
p402
S'1930/5/31'
p403
sS'Bruce_Willis'
p404
S'1955/3/19'
p405
sS'Michael_Vaughan'
p406
S'1974/10/29'
p407
sS'Jim_Carrey'
p408
S'1962/1/17'
p409
sS'Louis_C.K.'
p410
S'1967/9/12'
p411
sS'Harry_Judd'
p412
S'1985/12/23'
p413
sS'Edward_Norton'
p414
S'1969/8/18'
p415
sS'Simon_Cowell'
p416
S'1959/10/7'
p417
sS'Adele'
p418
S'1988/5/5'
p419
sS'Caroline_Flack'
p420
S'1979/11/9'
p421
sS'Jennifer_Aniston'
p422
S'1969/2/11'
p423
sS'Farrah_Fawcett'
p424
S'1947/2/2'
p425
sS'Angelina_Jolie'
p426
S'1975/6/4'
p427
sS'Jake_Gyllenhaal'
p428
S'1980/12/19'
p429
sS'Joe_Rogan'
p430
S'1967/8/11'
p431
sS'Cher_Lloyd'
p432
S'1993/7/28'
p433
sS'Shirley_Temple'
p434
S'1928/4/23'
p435
sS'Una_Healy'
p436
S'1981/10/10'
p437
sS'Helen_Flanagan'
p438
S'1990/8/7'
p439
sS'Kara_Tointon'
p440
S'1983/8/5'
p441
sS'Nicola_Robert'
p442
S'1985/10/5'
p443
sS'Johnny_Ball'
p444
S'1938/5/23'
p445
sS'Patrick_Swayze'
p446
S'1952/8/18'
p447
sS'Cameron_Diaz'
p448
S'1972/8/30'
p449
sS'Beth_Tweddle'
p450
S'1985/4/1'
p451
sS'Spencer_Pratt'
p452
g369
sS'Kelly_Brook'
p453
S'1979/11/23'
p454
sS'Carolynne_Poole'
p455
S'1980/8/5'
p456
sS'Brendan_Fraser'
p457
S'1968/12/3'
p458
sS'Antonio_Bandera'
p459
S'1960/8/10'
p460
sS'Nigella_Lawson'
p461
S'1960/1/6'
p462
sS'Kerry_Katona'
p463
S'1980/9/6'
p464
sS'Kamal_Haasan'
p465
S'1954/11/7'
p466
sS'Coleen_Nolan'
p467
S'1965/3/12'
p468
sS'Matt_Lapinskas'
p469
S'1989/2/27'
p470
sS'Drew_Barrymore'
p471
S'1975/2/22'
p472
sS'Frankie_Dettori'
p473
S'1970/12/15'
p474
sS'Nicole_Richie'
p475
S'1981/9/21'
p476
sS'Kimberley_Walsh'
p477
S'1981/11/20'
p478
sS'Keira_Knightley'
p479
S'1985/3/26'
p480
sS'Matt_Damon'
p481
S'1970/10/8'
p482
sS'Blake_Lively'
p483
S'1987/8/25'
p484
sS'Al_Pacino'
p485
S'1940/4/25'
p486
sS'Tricia_Penrose'
p487
S'1970/4/9'
p488
sS'Adolf_Hitler'
p489
S'1889/4/20'
p490
sS'Linda_Robson'
p491
S'1958/3/13'
p492
sS'Jennifer_Lawrence'
p493
S'1990/8/15'
p494
sS'Chris_Hemsworth'
p495
S'1983/8/11'
p496
sS'Tim_Allen'
p497
S'1953/6/13'
p498
sS'Russell_Brand'
p499
g427
sS'Sylvester_Stallone'
p500
S'1946/7/6'
p501
sS'Kelly_Osbourne'
p502
S'1984/10/27'
p503
sS'Robbie_Williams'
p504
S'1974/2/13'
p505
sS'Denzel_Washington'
p506
S'1954/12/28'
p507
sS'Steven_Spielberg'
p508
S'1946/12/18'
p509
sS'Cara_Delevingne'
p510
S'1992/8/12'
p511
sS'Shah_Rukh_Khan'
p512
S'1965/11/2'
p513
sS'Katie_Hopkins'
p514
S'1975/2/13'
p515
sS'Philip_Seymour_Hoffman'
p516
S'1967/7/23'
p517
sS'Harry_Style'
p518
S'1994/2/1'
p519
sS'Peter_Andre'
p520
S'1973/2/27'
p521
sS'Jessica_Chastain'
p522
S'1977/3/24'
p523
sS'Dougie_Poynter'
p524
S'1987/11/30'
p525
sS'Rosamund_Pike'
p526
S'1979/1/27'
p527
sS'Lily_Allen'
p528
S'1985/5/2'
p529
sS'Halle_Berry'
p530
S'1966/8/14'
p531
sS'Ben_Affleck'
p532
S'1972/8/15'
p533
sS'Darcey_Bussell'
p534
S'1969/4/27'
p535
sS'Seann_William_Scott'
p536
S'1976/10/3'
p537
sS'Shayne_Ward'
p538
S'1984/10/16'
p539
sS'Christopher_Walken'
p540
S'1943/3/31'
p541
sS'Tess_Daly'
p542
g535
sS'Robert_De_Niro'
p543
S'1943/8/17'
p544
sS'Scarlett_Johansson'
p545
S'1984/11/22'
p546
sS'Robert_Pattinson'
p547
S'1986/5/13'
p548
sS'Heath_Ledger'
p549
S'1979/4/4'
p550
s.